; Function Attrs: mustprogress nounwind uwtable
define hidden noundef zeroext i1 @_ZN22XPhysicalMemoryManager6commitER15XPhysicalMemory(ptr noundef nonnull align 8 dereferenceable(160) %0, ptr noundef nonnull align 8 dereferenceable(16) %1) local_unnamed_addr #1 align 2 {
  %3 = alloca %class.XPhysicalMemorySegment, align 8
  %4 = load i32, ptr %1, align 8
  %5 = icmp slt i32 %4, 1
  br i1 %5, label %_ZN15XPhysicalMemory14commit_segmentEim.exit.thread, label %.lr.ph

.lr.ph:                                           ; preds = %2
  %6 = getelementptr inbounds i8, ptr %1, i64 8
  br label %7

7:                                                ; preds = %.lr.ph, %37
  %8 = phi i32 [ %4, %.lr.ph ], [ %38, %37 ]
  %indvars.iv = phi i64 [ 0, %.lr.ph ], [ %indvars.iv.next, %37 ]
  %9 = load ptr, ptr %6, align 8
  %10 = getelementptr inbounds %class.XPhysicalMemorySegment, ptr %9, i64 %indvars.iv
  %11 = getelementptr inbounds i8, ptr %10, i64 16
  %12 = load i8, ptr %11, align 8
  %13 = trunc i8 %12 to i1
  br i1 %13, label %37, label %14

14:                                               ; preds = %7
  %15 = load i64, ptr %10, align 8
  %16 = getelementptr inbounds i8, ptr %10, i64 8
  %17 = load i64, ptr %16, align 8
  %18 = sub i64 %17, %15
  %19 = tail call noundef i64 @_ZNK22XPhysicalMemoryBacking6commitEmm(ptr noundef nonnull align 8 dereferenceable(41) %0, i64 noundef %15, i64 noundef %18) #13
  %20 = load ptr, ptr %6, align 8
  %21 = getelementptr inbounds %class.XPhysicalMemorySegment, ptr %20, i64 %indvars.iv
  %22 = getelementptr inbounds i8, ptr %21, i64 8
  %23 = load i64, ptr %22, align 8
  %24 = load i64, ptr %21, align 8
  %25 = sub i64 %23, %24
  %26 = icmp eq i64 %25, %19
  br i1 %26, label %_ZN15XPhysicalMemory14commit_segmentEim.exit.thread13, label %27

_ZN15XPhysicalMemory14commit_segmentEim.exit.thread13: ; preds = %14
  %.sroa.3.0..sroa_idx.i.i14 = getelementptr inbounds %class.XPhysicalMemorySegment, ptr %20, i64 %indvars.iv, i32 2
  store i8 1, ptr %.sroa.3.0..sroa_idx.i.i14, align 8
  %.pre = load i32, ptr %1, align 8
  br label %37

27:                                               ; preds = %14
  %.not.i = icmp eq i64 %19, 0
  br i1 %.not.i, label %_ZN15XPhysicalMemory14commit_segmentEim.exit.thread, label %_ZN15XPhysicalMemory14commit_segmentEim.exit

_ZN15XPhysicalMemory14commit_segmentEim.exit:     ; preds = %27
  %28 = trunc nuw nsw i64 %indvars.iv to i32
  %29 = add nuw nsw i32 %28, 1
  %30 = add i64 %24, %19
  call void @llvm.lifetime.start.p0(i64 24, ptr nonnull %3)
  store i64 %30, ptr %3, align 8
  %31 = getelementptr inbounds i8, ptr %3, i64 8
  store i64 %23, ptr %31, align 8
  %32 = getelementptr inbounds i8, ptr %3, i64 16
  store i8 0, ptr %32, align 8
  call void @_ZN26GrowableArrayWithAllocatorI22XPhysicalMemorySegment18GrowableArrayCHeapIS0_L8MEMFLAGS5EEE13insert_beforeEiRKS0_(ptr noundef nonnull align 8 dereferenceable(16) %1, i32 noundef %29, ptr noundef nonnull align 8 dereferenceable(17) %3)
  call void @llvm.lifetime.end.p0(i64 24, ptr nonnull %3)
  %33 = load ptr, ptr %6, align 8
  %34 = getelementptr inbounds %class.XPhysicalMemorySegment, ptr %33, i64 %indvars.iv
  %35 = load i64, ptr %34, align 8
  %36 = add i64 %35, %19
  %.sroa.2.0..sroa_idx.i.i = getelementptr inbounds i8, ptr %34, i64 8
  store i64 %36, ptr %.sroa.2.0..sroa_idx.i.i, align 8
  %.sroa.3.0..sroa_idx.i.i = getelementptr inbounds %class.XPhysicalMemorySegment, ptr %33, i64 %indvars.iv, i32 2
  store i8 1, ptr %.sroa.3.0..sroa_idx.i.i, align 8
  br label %_ZN15XPhysicalMemory14commit_segmentEim.exit.thread

37:                                               ; preds = %_ZN15XPhysicalMemory14commit_segmentEim.exit.thread13, %7
  %38 = phi i32 [ %.pre, %_ZN15XPhysicalMemory14commit_segmentEim.exit.thread13 ], [ %8, %7 ]
  %indvars.iv.next = add nuw nsw i64 %indvars.iv, 1
  %39 = sext i32 %38 to i64
  %.not = icmp slt i64 %indvars.iv.next, %39
  br i1 %.not, label %7, label %_ZN15XPhysicalMemory14commit_segmentEim.exit.thread, !llvm.loop !16

_ZN15XPhysicalMemory14commit_segmentEim.exit.thread: ; preds = %37, %2, %27, %_ZN15XPhysicalMemory14commit_segmentEim.exit
  %40 = phi i1 [ false, %27 ], [ false, %_ZN15XPhysicalMemory14commit_segmentEim.exit ], [ true, %2 ], [ true, %37 ]
  ret i1 %40
}